libcec-platform.so.1 libcec-platform1 #MINVER#
 _Z12IsUTF8LetterPKh@Base 1.0.10
 _Z12compareWcharPKvS0_@Base 1.0.10
 _Z14tolowerUnicodeRKw@Base 1.0.10
 _Z14toupperUnicodeRKw@Base 1.0.10
 _ZN11StringUtils10CreateUUIDEv@Base 1.0.10
 _ZN11StringUtils10FindNumberERKSsS1_@Base 1.0.10
 _ZN11StringUtils10RemoveCRLFERSs@Base 1.0.10
 _ZN11StringUtils10StartsWithEPKcS1_@Base 1.0.10
 _ZN11StringUtils10StartsWithERKSsPKc@Base 1.0.10
 _ZN11StringUtils10StartsWithERKSsS1_@Base 1.0.10
 _ZN11StringUtils10m_lastUUIDE@Base 1.0.10
 _ZN11StringUtils11utf8_strlenEPKc@Base 1.0.10
 _ZN11StringUtils12CompareFuzzyERKSsS1_@Base 1.0.10
 _ZN11StringUtils12EqualsNoCaseEPKcS1_@Base 1.0.10
 _ZN11StringUtils12EqualsNoCaseERKSsPKc@Base 1.0.10
 _ZN11StringUtils12EqualsNoCaseERKSsS1_@Base 1.0.10
 (optional)_ZN11StringUtils12SizeToStringEl@Base 1.0.10
 (optional)_ZN11StringUtils12SizeToStringEx@Base 1.0.10
 _ZN11StringUtils12WordToDigitsERSs@Base 1.0.10
 _ZN11StringUtils13CompareNoCaseEPKcS1_@Base 1.0.10
 _ZN11StringUtils13CompareNoCaseERKSsS1_@Base 1.0.10
 _ZN11StringUtils13FindBestMatchERKSsRKSt6vectorISsSaISsEERd@Base 1.0.10
 _ZN11StringUtils14EndsWithNoCaseERKSsPKc@Base 1.0.10
 _ZN11StringUtils14EndsWithNoCaseERKSsS1_@Base 1.0.10
 _ZN11StringUtils14FindEndBracketERKSscci@Base 1.0.10
 _ZN11StringUtils15ContainsKeywordERKSsRKSt6vectorISsSaISsEE@Base 1.0.10
 _ZN11StringUtils15IsNaturalNumberERKSs@Base 1.0.10
 _ZN11StringUtils15asciidigitvalueEc@Base 1.0.10
 _ZN11StringUtils16StartsWithNoCaseEPKcS1_@Base 1.0.10
 _ZN11StringUtils16StartsWithNoCaseERKSsPKc@Base 1.0.10
 _ZN11StringUtils16StartsWithNoCaseERKSsS1_@Base 1.0.10
 _ZN11StringUtils16asciixdigitvalueEc@Base 1.0.10
 _ZN11StringUtils19AlphaNumericCompareEPKwS1_@Base 1.0.10
 _ZN11StringUtils19SecondsToTimeStringEl11TIME_FORMAT@Base 1.0.10
 _ZN11StringUtils19TimeStringToSecondsERKSs@Base 1.0.10
 _ZN11StringUtils20DateStringToYYYYMMDDERKSs@Base 1.0.10
 _ZN11StringUtils29RemoveDuplicatedSpacesAndTabsERSs@Base 1.0.10
 (optional)_ZN11StringUtils3MidERKSsjj@Base 1.0.10
 (optional)_ZN11StringUtils3MidERKSsmm@Base 1.0.10
 (optional)_ZN11StringUtils4JoinERKSt6vectorISsSaISsEERKSs@Base 1.0.10
 (optional)_ZN11StringUtils4LeftERKSsj@Base 1.0.10
 (optional)_ZN11StringUtils4LeftERKSsm@Base 1.0.10
 (optional)_ZN11StringUtils4TrimERSs@Base 1.0.10
 _ZN11StringUtils4TrimERSsPKc@Base 1.0.10
 _ZN11StringUtils5EmptyE@Base 1.0.10
 (optional)_ZN11StringUtils5RightERKSsj@Base 1.0.10
 (optional)_ZN11StringUtils5RightERKSsm@Base 1.0.10
 (optional)_ZN11StringUtils5SplitERKSsS1_j@Base 1.0.10
 _ZN11StringUtils6FormatEPKcz@Base 1.0.10
 _ZN11StringUtils6FormatEPKwz@Base 1.0.10
 (optional)_ZN11StringUtils7FormatVEPKcP13__va_list_tag@Base 1.0.10
 (optional)_ZN11StringUtils7FormatVEPKcPc@Base 1.0.10
 (optional)_ZN11StringUtils7FormatVEPKwPc@Base 1.0.10
 (optional)_ZN11StringUtils7FormatVEPKwP13__va_list_tag@Base 1.0.10
 (optional)_ZN11StringUtils7FormatVEPKcSt9__va_list@Base 1.0.10
 (optional)_ZN11StringUtils7FormatVEPKwSt9__va_list@Base 1.0.10
 _ZN11StringUtils7ReplaceERSbIwSt11char_traitsIwESaIwEERKS3_S6_@Base 1.0.10
 _ZN11StringUtils7ReplaceERSsRKSsS2_@Base 1.0.10
 _ZN11StringUtils7ReplaceERSscc@Base 1.0.10
 _ZN11StringUtils7ToLowerERSbIwSt11char_traitsIwESaIwEE@Base 1.0.10
 _ZN11StringUtils7ToLowerERSs@Base 1.0.10
 _ZN11StringUtils7ToUpperERSbIwSt11char_traitsIwESaIwEE@Base 1.0.10
 _ZN11StringUtils7ToUpperERSs@Base 1.0.10
 _ZN11StringUtils8EndsWithERKSsPKc@Base 1.0.10
 _ZN11StringUtils8EndsWithERKSsS1_@Base 1.0.10
 _ZN11StringUtils8ParamifyERKSs@Base 1.0.10
 _ZN11StringUtils8TokenizeERKSsRSt6vectorISsSaISsEES1_@Base 1.0.10
 _ZN11StringUtils8TokenizeERKSsS1_@Base 1.0.10
 _ZN11StringUtils8TrimLeftERSs@Base 1.0.10
 _ZN11StringUtils8TrimLeftERSsPKc@Base 1.0.10
 _ZN11StringUtils9FindWordsEPKcS1_@Base 1.0.10
 _ZN11StringUtils9IsIntegerERKSs@Base 1.0.10
 _ZN11StringUtils9TrimRightERSs@Base 1.0.10
 _ZN11StringUtils9TrimRightERSsPKc@Base 1.0.10
 _ZNSt12_Destroy_auxILb0EE9__destroyIPSsEEvT_S3_@Base 1.0.10
 _ZNSt6vectorISsSaISsEE13_M_insert_auxEN9__gnu_cxx17__normal_iteratorIPSsS1_EERKSs@Base 1.0.10
 _ZNSt6vectorISsSaISsEED1Ev@Base 1.0.10
 _ZNSt6vectorISsSaISsEED2Ev@Base 1.0.10
 _ZNSt6vectorIjSaIjEE13_M_insert_auxEN9__gnu_cxx17__normal_iteratorIPjS1_EERKj@Base 1.0.10
 _ZSt9__find_ifIN9__gnu_cxx17__normal_iteratorIPcSsEENS0_5__ops10_Iter_predISt12unary_negateISt25pointer_to_unary_functionIciEEEEET_SB_SB_T0_St26random_access_iterator_tag@Base 1.0.10




